Certificate:
    Data:
        Version: 3 (0x2)
        Serial Number: 1 (0x1)
        Signature Algorithm: sha256WithRSAEncryption
        Issuer: O=Example CA
        Validity
            Not Before: Jan  4 07:43:24 2019 GMT
            Not After : Jan  4 07:43:24 2034 GMT
        Subject: O=Example CA
        Subject Public Key Info:
            Public Key Algorithm: rsaEncryption
                Public-Key: (1024 bit)
                Modulus:
                    00:be:25:af:2f:39:71:f9:79:15:7e:6d:03:c0:e4:
                    a8:d7:48:76:6b:10:82:e4:8e:4a:a6:4f:2b:98:b9:
                    f4:44:cf:47:3f:bf:86:41:92:fb:d7:54:40:a7:58:
                    99:e7:66:22:bd:bd:d7:a3:1b:3f:4f:14:1a:70:28:
                    ed:18:97:02:8e:1a:3b:07:47:7b:49:fe:e0:08:00:
                    e0:6b:d6:d8:0e:5f:67:ff:05:d9:eb:5a:68:8c:dd:
                    da:dc:25:14:47:b1:3c:98:8b:ab:aa:67:b2:cb:38:
                    b2:15:a0:18:de:09:de:e3:93:b8:16:5f:42:4c:b2:
                    6d:25:4b:6d:03:48:0c:6a:d9
                Exponent: 65537 (0x10001)
        X509v3 extensions:
            X509v3 Basic Constraints: critical
                CA:TRUE
            X509v3 Key Usage: critical
                Certificate Sign, CRL Sign
            X509v3 Subject Key Identifier: 
                B7:6E:D8:33:5B:DA:4B:2D:A0:26:91:F1:4B:29:89:36:40:8A:6F:29
            X509v3 Authority Key Identifier: 
                B7:6E:D8:33:5B:DA:4B:2D:A0:26:91:F1:4B:29:89:36:40:8A:6F:29
    Signature Algorithm: sha256WithRSAEncryption
    Signature Value:
        9d:1c:f8:66:d2:8e:ff:a3:fc:7e:4e:41:3c:ff:0b:3d:fd:0e:
        68:0a:56:34:44:a0:d5:24:5f:35:b7:ee:ed:98:7d:a6:29:e2:
        b8:15:50:98:e6:05:01:73:7e:11:62:c9:d2:c4:a5:52:ca:06:
        55:84:db:66:f3:e2:b6:2f:cf:12:da:6c:2b:0e:08:25:bf:64:
        79:c3:f3:69:47:d8:bf:c5:82:29:8a:44:bf:3f:2b:01:44:71:
        10:4c:70:c7:51:90:ec:92:f5:42:1b:c6:ce:08:aa:26:96:e1:
        1a:74:5c:5a:ee:ff:34:25:87:db:23:fb:4f:05:c2:08:6a:e7:
        2e:60
-----BEGIN CERTIFICATE-----
MIIDZTCCAk2gAwIBAgIUYuzNXJWI3sx3Cbr5azewf/r0aKQwDQYJKoZIhvcNAQEL
BQAwVTELMAkGA1UEBhMCVVMxEzARBgNVBAgMCkNhbGlmb3JuaWExGzAZBgNVBAoM
Ek15IE9yZ2FuaXphdGlvbiBDQTEUMBIGA1UEAwwLZXhhbXBsZS5jb20wHhcNMjQx
MTAxMTczMzUxWhcNMjUxMTAxMTczMzUxWjBqMQswCQYDVQQGEwJVUzETMBEGA1UE
CAwKQ2FsaWZvcm5pYTEWMBQGA1UEBwwNU2FuIEZyYW5jaXNjbzEYMBYGA1UECgwP
TXkgT3JnYW5pemF0aW9uMRQwEgYDVQQDDAtleGFtcGxlLmNvbTCCASAwDQYJKoZI
hvcNAQEBBQADggENADCCAQgCggEBAMAVv66Qt7BDk1N1/y1cuTuRh0UM3K1G3yFI
3+52XyWs6yJxRtMwh1833mdv7XpmqJl2fPAhRYLTUlXve6r94R0dsUVAw22FvQuF
MVJp7MjANRItRMk5k95j8oDkFquG+FFu3Vp5dzAMyE3n6RJZenI6qNESsJG3naaI
MJmyzBH/8tVvFi6dO4cEtO5OejBaUANveSG6i2WNEihv99OO1dcQHWk28aEQ4X6a
3GZh1toHAvSVYMNBXc6InoYnHQrgo5IWbCm2MTvX0TrmDVCDs+mmnUPzOkvK9f7K
8ds+rjjYwzVxaNHdpM6cJN3q6BeJnxMXhKZ8LTE3pzTKjaXangMCAQOjGjAYMBYG
A1UdEQQPMA2CC2V4YW1wbGUuY29tMA0GCSqGSIb3DQEBCwUAA4IBAQAVNVof8+m9
MM0A6zY2HFQa/9PsxJI1gpigaUsalWJSiM+bj0vOBLAXNvIGEzW/GyuakhWQm5Mj
y9TQNLD/1wc3x9bMZs+7N5sWtEU0fWZc/l2aoD3kgSWDuxkV6/HWh+dRoVJPpqBe
NS4gZeKBHFCxtZrCgjRUUpuVRQKABBuqtBDFd+GBndWCpiEyBB57bHpEVHQZ70pg
9xzZBpktZnLqFTpFX+jp8wq3rpaX56FZx2j9SQgxeKu/Uxw28c15GZFJ3rIKUi5r
Q9T1AEq/ls5+x9ppnHrpoKocbwovGOtIhgg+WvrWV4fbY9uzzK547Pf5fSOQsy+L
mOJrVOWx2KjC
-----END CERTIFICATE-----
