
encryptor：     文件格式 elf64-x86-64


Disassembly of section .init:

0000000000001000 <.init>:
    1000:	48 83 ec 08          	sub    $0x8,%rsp
    1004:	48 8b 05 c5 2f 00 00 	mov    0x2fc5(%rip),%rax        # 3fd0 <__cxa_finalize@plt+0x2f60>
    100b:	48 85 c0             	test   %rax,%rax
    100e:	74 02                	je     1012 <puts@plt-0x1e>
    1010:	ff d0                	call   *%rax
    1012:	48 83 c4 08          	add    $0x8,%rsp
    1016:	c3                   	ret

Disassembly of section .plt:

0000000000001020 <puts@plt-0x10>:
    1020:	ff 35 ca 2f 00 00    	push   0x2fca(%rip)        # 3ff0 <__cxa_finalize@plt+0x2f80>
    1026:	ff 25 cc 2f 00 00    	jmp    *0x2fcc(%rip)        # 3ff8 <__cxa_finalize@plt+0x2f88>
    102c:	0f 1f 40 00          	nopl   0x0(%rax)

0000000000001030 <puts@plt>:
    1030:	ff 25 ca 2f 00 00    	jmp    *0x2fca(%rip)        # 4000 <__cxa_finalize@plt+0x2f90>
    1036:	68 00 00 00 00       	push   $0x0
    103b:	e9 e0 ff ff ff       	jmp    1020 <puts@plt-0x10>

0000000000001040 <strlen@plt>:
    1040:	ff 25 c2 2f 00 00    	jmp    *0x2fc2(%rip)        # 4008 <__cxa_finalize@plt+0x2f98>
    1046:	68 01 00 00 00       	push   $0x1
    104b:	e9 d0 ff ff ff       	jmp    1020 <puts@plt-0x10>

0000000000001050 <printf@plt>:
    1050:	ff 25 ba 2f 00 00    	jmp    *0x2fba(%rip)        # 4010 <__cxa_finalize@plt+0x2fa0>
    1056:	68 02 00 00 00       	push   $0x2
    105b:	e9 c0 ff ff ff       	jmp    1020 <puts@plt-0x10>

0000000000001060 <malloc@plt>:
    1060:	ff 25 b2 2f 00 00    	jmp    *0x2fb2(%rip)        # 4018 <__cxa_finalize@plt+0x2fa8>
    1066:	68 03 00 00 00       	push   $0x3
    106b:	e9 b0 ff ff ff       	jmp    1020 <puts@plt-0x10>

Disassembly of section .plt.got:

0000000000001070 <__cxa_finalize@plt>:
    1070:	ff 25 6a 2f 00 00    	jmp    *0x2f6a(%rip)        # 3fe0 <__cxa_finalize@plt+0x2f70>
    1076:	66 90                	xchg   %ax,%ax

Disassembly of section .text:

0000000000001080 <.text>:
    1080:	31 ed                	xor    %ebp,%ebp
    1082:	49 89 d1             	mov    %rdx,%r9
    1085:	5e                   	pop    %rsi
    1086:	48 89 e2             	mov    %rsp,%rdx
    1089:	48 83 e4 f0          	and    $0xfffffffffffffff0,%rsp
    108d:	50                   	push   %rax
    108e:	54                   	push   %rsp
    108f:	45 31 c0             	xor    %r8d,%r8d
    1092:	31 c9                	xor    %ecx,%ecx
    1094:	48 8d 3d 55 01 00 00 	lea    0x155(%rip),%rdi        # 11f0 <__cxa_finalize@plt+0x180>
    109b:	ff 15 1f 2f 00 00    	call   *0x2f1f(%rip)        # 3fc0 <__cxa_finalize@plt+0x2f50>
    10a1:	f4                   	hlt
    10a2:	66 2e 0f 1f 84 00 00 	cs nopw 0x0(%rax,%rax,1)
    10a9:	00 00 00 
    10ac:	0f 1f 40 00          	nopl   0x0(%rax)
    10b0:	48 8d 3d 79 2f 00 00 	lea    0x2f79(%rip),%rdi        # 4030 <__cxa_finalize@plt+0x2fc0>
    10b7:	48 8d 05 72 2f 00 00 	lea    0x2f72(%rip),%rax        # 4030 <__cxa_finalize@plt+0x2fc0>
    10be:	48 39 f8             	cmp    %rdi,%rax
    10c1:	74 15                	je     10d8 <__cxa_finalize@plt+0x68>
    10c3:	48 8b 05 fe 2e 00 00 	mov    0x2efe(%rip),%rax        # 3fc8 <__cxa_finalize@plt+0x2f58>
    10ca:	48 85 c0             	test   %rax,%rax
    10cd:	74 09                	je     10d8 <__cxa_finalize@plt+0x68>
    10cf:	ff e0                	jmp    *%rax
    10d1:	0f 1f 80 00 00 00 00 	nopl   0x0(%rax)
    10d8:	c3                   	ret
    10d9:	0f 1f 80 00 00 00 00 	nopl   0x0(%rax)
    10e0:	48 8d 3d 49 2f 00 00 	lea    0x2f49(%rip),%rdi        # 4030 <__cxa_finalize@plt+0x2fc0>
    10e7:	48 8d 35 42 2f 00 00 	lea    0x2f42(%rip),%rsi        # 4030 <__cxa_finalize@plt+0x2fc0>
    10ee:	48 29 fe             	sub    %rdi,%rsi
    10f1:	48 89 f0             	mov    %rsi,%rax
    10f4:	48 c1 ee 3f          	shr    $0x3f,%rsi
    10f8:	48 c1 f8 03          	sar    $0x3,%rax
    10fc:	48 01 c6             	add    %rax,%rsi
    10ff:	48 d1 fe             	sar    %rsi
    1102:	74 14                	je     1118 <__cxa_finalize@plt+0xa8>
    1104:	48 8b 05 cd 2e 00 00 	mov    0x2ecd(%rip),%rax        # 3fd8 <__cxa_finalize@plt+0x2f68>
    110b:	48 85 c0             	test   %rax,%rax
    110e:	74 08                	je     1118 <__cxa_finalize@plt+0xa8>
    1110:	ff e0                	jmp    *%rax
    1112:	66 0f 1f 44 00 00    	nopw   0x0(%rax,%rax,1)
    1118:	c3                   	ret
    1119:	0f 1f 80 00 00 00 00 	nopl   0x0(%rax)
    1120:	f3 0f 1e fa          	endbr64
    1124:	80 3d 05 2f 00 00 00 	cmpb   $0x0,0x2f05(%rip)        # 4030 <__cxa_finalize@plt+0x2fc0>
    112b:	75 2b                	jne    1158 <__cxa_finalize@plt+0xe8>
    112d:	55                   	push   %rbp
    112e:	48 83 3d aa 2e 00 00 	cmpq   $0x0,0x2eaa(%rip)        # 3fe0 <__cxa_finalize@plt+0x2f70>
    1135:	00 
    1136:	48 89 e5             	mov    %rsp,%rbp
    1139:	74 0c                	je     1147 <__cxa_finalize@plt+0xd7>
    113b:	48 8b 3d e6 2e 00 00 	mov    0x2ee6(%rip),%rdi        # 4028 <__cxa_finalize@plt+0x2fb8>
    1142:	e8 29 ff ff ff       	call   1070 <__cxa_finalize@plt>
    1147:	e8 64 ff ff ff       	call   10b0 <__cxa_finalize@plt+0x40>
    114c:	c6 05 dd 2e 00 00 01 	movb   $0x1,0x2edd(%rip)        # 4030 <__cxa_finalize@plt+0x2fc0>
    1153:	5d                   	pop    %rbp
    1154:	c3                   	ret
    1155:	0f 1f 00             	nopl   (%rax)
    1158:	c3                   	ret
    1159:	0f 1f 80 00 00 00 00 	nopl   0x0(%rax)
    1160:	f3 0f 1e fa          	endbr64
    1164:	e9 77 ff ff ff       	jmp    10e0 <__cxa_finalize@plt+0x70>
    1169:	55                   	push   %rbp
    116a:	48 89 e5             	mov    %rsp,%rbp
    116d:	48 83 ec 20          	sub    $0x20,%rsp
    1171:	48 89 7d e8          	mov    %rdi,-0x18(%rbp)
    1175:	89 75 e4             	mov    %esi,-0x1c(%rbp)
    1178:	8b 45 e4             	mov    -0x1c(%rbp),%eax
    117b:	83 c0 01             	add    $0x1,%eax
    117e:	48 98                	cltq
    1180:	48 89 c7             	mov    %rax,%rdi
    1183:	e8 d8 fe ff ff       	call   1060 <malloc@plt>
    1188:	48 89 45 f0          	mov    %rax,-0x10(%rbp)
    118c:	c7 45 fc 00 00 00 00 	movl   $0x0,-0x4(%rbp)
    1193:	eb 3d                	jmp    11d2 <__cxa_finalize@plt+0x162>
    1195:	8b 45 fc             	mov    -0x4(%rbp),%eax
    1198:	48 98                	cltq
    119a:	48 8d 50 01          	lea    0x1(%rax),%rdx
    119e:	48 8b 45 e8          	mov    -0x18(%rbp),%rax
    11a2:	48 01 d0             	add    %rdx,%rax
    11a5:	0f b6 08             	movzbl (%rax),%ecx
    11a8:	8b 45 fc             	mov    -0x4(%rbp),%eax
    11ab:	48 63 d0             	movslq %eax,%rdx
    11ae:	48 8b 45 e8          	mov    -0x18(%rbp),%rax
    11b2:	48 01 d0             	add    %rdx,%rax
    11b5:	0f b6 00             	movzbl (%rax),%eax
    11b8:	31 c8                	xor    %ecx,%eax
    11ba:	8d 48 21             	lea    0x21(%rax),%ecx
    11bd:	8b 45 fc             	mov    -0x4(%rbp),%eax
    11c0:	48 63 d0             	movslq %eax,%rdx
    11c3:	48 8b 45 f0          	mov    -0x10(%rbp),%rax
    11c7:	48 01 d0             	add    %rdx,%rax
    11ca:	89 ca                	mov    %ecx,%edx
    11cc:	88 10                	mov    %dl,(%rax)
    11ce:	83 45 fc 01          	addl   $0x1,-0x4(%rbp)
    11d2:	8b 45 fc             	mov    -0x4(%rbp),%eax
    11d5:	3b 45 e4             	cmp    -0x1c(%rbp),%eax
    11d8:	7c bb                	jl     1195 <__cxa_finalize@plt+0x125>
    11da:	8b 45 fc             	mov    -0x4(%rbp),%eax
    11dd:	48 63 d0             	movslq %eax,%rdx
    11e0:	48 8b 45 f0          	mov    -0x10(%rbp),%rax
    11e4:	48 01 d0             	add    %rdx,%rax
    11e7:	c6 00 00             	movb   $0x0,(%rax)
    11ea:	48 8b 45 f0          	mov    -0x10(%rbp),%rax
    11ee:	c9                   	leave
    11ef:	c3                   	ret
    11f0:	55                   	push   %rbp
    11f1:	48 89 e5             	mov    %rsp,%rbp
    11f4:	48 83 ec 20          	sub    $0x20,%rsp
    11f8:	89 7d ec             	mov    %edi,-0x14(%rbp)
    11fb:	48 89 75 e0          	mov    %rsi,-0x20(%rbp)
    11ff:	83 7d ec 02          	cmpl   $0x2,-0x14(%rbp)
    1203:	74 11                	je     1216 <__cxa_finalize@plt+0x1a6>
    1205:	48 8d 05 f8 0d 00 00 	lea    0xdf8(%rip),%rax        # 2004 <__cxa_finalize@plt+0xf94>
    120c:	48 89 c7             	mov    %rax,%rdi
    120f:	e8 1c fe ff ff       	call   1030 <puts@plt>
    1214:	eb 78                	jmp    128e <__cxa_finalize@plt+0x21e>
    1216:	48 8b 45 e0          	mov    -0x20(%rbp),%rax
    121a:	48 83 c0 08          	add    $0x8,%rax
    121e:	48 8b 00             	mov    (%rax),%rax
    1221:	48 89 c7             	mov    %rax,%rdi
    1224:	e8 17 fe ff ff       	call   1040 <strlen@plt>
    1229:	89 c2                	mov    %eax,%edx
    122b:	48 8b 45 e0          	mov    -0x20(%rbp),%rax
    122f:	48 83 c0 08          	add    $0x8,%rax
    1233:	48 8b 00             	mov    (%rax),%rax
    1236:	89 d6                	mov    %edx,%esi
    1238:	48 89 c7             	mov    %rax,%rdi
    123b:	e8 29 ff ff ff       	call   1169 <__cxa_finalize@plt+0xf9>
    1240:	48 89 45 f0          	mov    %rax,-0x10(%rbp)
    1244:	c7 45 fc 00 00 00 00 	movl   $0x0,-0x4(%rbp)
    124b:	eb 2d                	jmp    127a <__cxa_finalize@plt+0x20a>
    124d:	8b 45 fc             	mov    -0x4(%rbp),%eax
    1250:	48 63 d0             	movslq %eax,%rdx
    1253:	48 8b 45 f0          	mov    -0x10(%rbp),%rax
    1257:	48 01 d0             	add    %rdx,%rax
    125a:	0f b6 00             	movzbl (%rax),%eax
    125d:	0f b6 c0             	movzbl %al,%eax
    1260:	89 c6                	mov    %eax,%esi
    1262:	48 8d 05 b3 0d 00 00 	lea    0xdb3(%rip),%rax        # 201c <__cxa_finalize@plt+0xfac>
    1269:	48 89 c7             	mov    %rax,%rdi
    126c:	b8 00 00 00 00       	mov    $0x0,%eax
    1271:	e8 da fd ff ff       	call   1050 <printf@plt>
    1276:	83 45 fc 01          	addl   $0x1,-0x4(%rbp)
    127a:	8b 45 fc             	mov    -0x4(%rbp),%eax
    127d:	48 63 d0             	movslq %eax,%rdx
    1280:	48 8b 45 f0          	mov    -0x10(%rbp),%rax
    1284:	48 01 d0             	add    %rdx,%rax
    1287:	0f b6 00             	movzbl (%rax),%eax
    128a:	84 c0                	test   %al,%al
    128c:	75 bf                	jne    124d <__cxa_finalize@plt+0x1dd>
    128e:	b8 00 00 00 00       	mov    $0x0,%eax
    1293:	c9                   	leave
    1294:	c3                   	ret

Disassembly of section .fini:

0000000000001298 <.fini>:
    1298:	48 83 ec 08          	sub    $0x8,%rsp
    129c:	48 83 c4 08          	add    $0x8,%rsp
    12a0:	c3                   	ret
